target datalayout = "e-m:e-p270:32:32-p271:32:32-p272:64:64-i64:64-i128:128-f80:128-n8:16:32:64-S128"
target triple = "x86_64-pc-linux-gnu"

%class.btConvexConcaveCollisionAlgorithm = type <{ %class.btActivatingCollisionAlgorithm, %class.btConvexTriangleCallback, i8, [7 x i8] }>
%class.btActivatingCollisionAlgorithm = type { %class.btCollisionAlgorithm }
%class.btCollisionAlgorithm = type { ptr, ptr }
%class.btConvexTriangleCallback = type { %class.btTriangleCallback, %class.btVector3, %class.btVector3, ptr, ptr, ptr, ptr, ptr, float, i32, ptr }
%class.btTriangleCallback = type { ptr }
%class.btVector3 = type { [4 x float] }

@_ZN24btConvexTriangleCallbackD1Ev = dso_local unnamed_addr alias void (ptr), ptr @_ZN24btConvexTriangleCallbackD2Ev

; Function Attrs: mustprogress nounwind uwtable
define dso_local void @_ZN33btConvexConcaveCollisionAlgorithmD2Ev(ptr noundef nonnull align 8 dereferenceable(113) %0) unnamed_addr #1 align 2 {
  %2 = alloca ptr, align 8
  store ptr %0, ptr %2, align 8, !tbaa !12
  %3 = load ptr, ptr %2, align 8
  store ptr getelementptr inbounds inrange(-16, 40) ({ [7 x ptr] }, ptr @_ZTV33btConvexConcaveCollisionAlgorithm, i32 0, i32 0, i32 2), ptr %3, align 8, !tbaa !20
  %4 = getelementptr inbounds nuw %class.btConvexConcaveCollisionAlgorithm, ptr %3, i32 0, i32 1
  call void @_ZN24btConvexTriangleCallbackD1Ev(ptr noundef nonnull align 8 dereferenceable(96) %4) #14
  call void @_ZN30btActivatingCollisionAlgorithmD2Ev(ptr noundef nonnull align 8 dereferenceable(16) %3) #14
  ret void
}